; Function Attrs: mustprogress uwtable
define noundef zeroext i1 @_ZN7rocksdb18SstFileManagerImpl44IsMaxAllowedSpaceReachedIncludingCompactionsEv(ptr noundef nonnull align 8 dereferenceable(856) %0) unnamed_addr #4 align 2 personality ptr @__gxx_personality_v0 {
  %2 = getelementptr inbounds nuw i8, ptr %0, i64 56
  tail call void @_ZN7rocksdb4port5Mutex4LockEv(ptr noundef nonnull align 8 dereferenceable(40) %2)
  %3 = getelementptr inbounds nuw i8, ptr %0, i64 176
  %4 = load i64, ptr %3, align 8, !tbaa !195
  %5 = getelementptr inbounds nuw i8, ptr %0, i64 96
  %6 = load i64, ptr %5, align 8
  %7 = getelementptr inbounds nuw i8, ptr %0, i64 112
  %8 = load i64, ptr %7, align 8
  invoke void @_ZN7rocksdb4port5Mutex6UnlockEv(ptr noundef nonnull align 8 dereferenceable(40) %2)
          to label %_ZN7rocksdb9MutexLockD2Ev.exit unwind label %9

9:                                                ; preds = %1
  %10 = landingpad { ptr, i32 }
          catch ptr null
  %11 = extractvalue { ptr, i32 } %10, 0
  tail call void @__clang_call_terminate(ptr %11) #24
  unreachable

_ZN7rocksdb9MutexLockD2Ev.exit:                   ; preds = %1
  %12 = add i64 %8, %6
  %13 = freeze i64 %12
  %14 = add i64 %4, -1
  %.0 = icmp ult i64 %14, %13
  ret i1 %.0
}